target datalayout = "e-m:e-p270:32:32-p271:32:32-p272:64:64-i64:64-i128:128-f80:128-n8:16:32:64-S128"
target triple = "x86_64-pc-linux-gnu"

%"class.std::lock_guard" = type { ptr }

; Function Attrs: mustprogress nounwind uwtable
define linkonce_odr void @_ZNSt10lock_guardIRKN11OpenImageIO6v3_1_010ImageInputEED2Ev(ptr noundef nonnull align 8 dereferenceable(8) %0) unnamed_addr #7 comdat align 2 personality ptr @__gxx_personality_v0 {
  %2 = alloca ptr, align 8
  store ptr %0, ptr %2, align 8, !tbaa !138
  %3 = load ptr, ptr %2, align 8
  %4 = getelementptr inbounds nuw %"class.std::lock_guard", ptr %3, i32 0, i32 0
  %5 = load ptr, ptr %4, align 8, !tbaa !140
  invoke void @_ZNK11OpenImageIO6v3_1_010ImageInput6unlockEv(ptr noundef nonnull align 8 dereferenceable(184) %5)
          to label %6 unwind label %7

6:                                                ; preds = %1
  ret void

7:                                                ; preds = %1
  %8 = landingpad { ptr, i32 }
          catch ptr null
  %9 = extractvalue { ptr, i32 } %8, 0
  call void @__clang_call_terminate(ptr %9) #24
  unreachable
}

; Function Attrs: mustprogress uwtable
define linkonce_odr noundef zeroext i1 @_ZN11OpenImageIO6v3_1_010ImageInput13seek_subimageEii(ptr noundef nonnull align 8 dereferenceable(184) %0, i32 noundef %1, i32 noundef %2) unnamed_addr #6 comdat align 2 {
  %4 = alloca ptr, align 8
  %5 = alloca i32, align 4
  %6 = alloca i32, align 4
  store ptr %0, ptr %4, align 8, !tbaa !76
  store i32 %1, ptr %5, align 4, !tbaa !13
  store i32 %2, ptr %6, align 4, !tbaa !13
  %7 = load ptr, ptr %4, align 8
  %8 = load i32, ptr %5, align 4, !tbaa !13
  %9 = load ptr, ptr %7, align 8, !tbaa !10
  %10 = getelementptr inbounds ptr, ptr %9, i64 13
  %11 = load ptr, ptr %10, align 8
  %12 = call noundef i32 %11(ptr noundef nonnull align 8 dereferenceable(184) %7)
  %13 = icmp eq i32 %8, %12
  br i1 %13, label %14, label %21

14:                                               ; preds = %3
  %15 = load i32, ptr %6, align 4, !tbaa !13
  %16 = load ptr, ptr %7, align 8, !tbaa !10
  %17 = getelementptr inbounds ptr, ptr %16, i64 14
  %18 = load ptr, ptr %17, align 8
  %19 = call noundef i32 %18(ptr noundef nonnull align 8 dereferenceable(184) %7)
  %20 = icmp eq i32 %15, %19
  br label %21

21:                                               ; preds = %14, %3
  %22 = phi i1 [ false, %3 ], [ %20, %14 ]
  ret i1 %22
}

; Function Attrs: mustprogress uwtable
define linkonce_odr void @_ZNSt10lock_guardIRKN11OpenImageIO6v3_1_010ImageInputEEC2ES4_(ptr noundef nonnull align 8 dereferenceable(8) %0, ptr noundef nonnull align 8 dereferenceable(184) %1) unnamed_addr #6 comdat align 2 {
  %3 = alloca ptr, align 8
  %4 = alloca ptr, align 8
  store ptr %0, ptr %3, align 8, !tbaa !138
  store ptr %1, ptr %4, align 8, !tbaa !76
  %5 = load ptr, ptr %3, align 8
  %6 = getelementptr inbounds nuw %"class.std::lock_guard", ptr %5, i32 0, i32 0
  %7 = load ptr, ptr %4, align 8, !tbaa !76
  store ptr %7, ptr %6, align 8, !tbaa !76
  %8 = getelementptr inbounds nuw %"class.std::lock_guard", ptr %5, i32 0, i32 0
  %9 = load ptr, ptr %8, align 8, !tbaa !140
  call void @_ZNK11OpenImageIO6v3_1_010ImageInput4lockEv(ptr noundef nonnull align 8 dereferenceable(184) %9)
  ret void
}

; Function Attrs: mustprogress uwtable
define hidden noundef zeroext i1 @_ZN11OpenImageIO6v3_1_08PNMInput20read_native_scanlineEiiiiPv(ptr noundef nonnull align 8 dereferenceable(264) %0, i32 noundef %1, i32 noundef %2, i32 noundef %3, i32 noundef %4, ptr noundef %5) unnamed_addr #6 align 2 personality ptr @__gxx_personality_v0 {
  %7 = alloca i1, align 1
  %8 = alloca ptr, align 8
  %9 = alloca i32, align 4
  %10 = alloca i32, align 4
  %11 = alloca i32, align 4
  %12 = alloca i32, align 4
  %13 = alloca ptr, align 8
  %14 = alloca %"class.std::lock_guard", align 8
  %15 = alloca ptr, align 8
  %16 = alloca i32, align 4
  %17 = alloca i32, align 4
  store ptr %0, ptr %8, align 8, !tbaa !8
  store i32 %1, ptr %9, align 4, !tbaa !13
  store i32 %2, ptr %10, align 4, !tbaa !13
  store i32 %3, ptr %11, align 4, !tbaa !13
  store i32 %4, ptr %12, align 4, !tbaa !13
  store ptr %5, ptr %13, align 8, !tbaa !12
  %18 = load ptr, ptr %8, align 8
  call void @llvm.lifetime.start.p0(i64 8, ptr %14) #3
  call void @_ZNSt10lock_guardIRKN11OpenImageIO6v3_1_010ImageInputEEC2ES4_(ptr noundef nonnull align 8 dereferenceable(8) %14, ptr noundef nonnull align 8 dereferenceable(184) %18)
  %19 = load i32, ptr %9, align 4, !tbaa !13
  %20 = load i32, ptr %10, align 4, !tbaa !13
  %21 = invoke noundef zeroext i1 @_ZN11OpenImageIO6v3_1_010ImageInput13seek_subimageEii(ptr noundef nonnull align 8 dereferenceable(184) %18, i32 noundef %19, i32 noundef %20)
          to label %22 unwind label %24

22:                                               ; preds = %6
  br i1 %21, label %28, label %23

23:                                               ; preds = %22
  store i1 false, ptr %7, align 1
  store i32 1, ptr %17, align 4
  br label %39

24:                                               ; preds = %32, %6
  %25 = landingpad { ptr, i32 }
          cleanup
  %26 = extractvalue { ptr, i32 } %25, 0
  store ptr %26, ptr %15, align 8
  %27 = extractvalue { ptr, i32 } %25, 1
  store i32 %27, ptr %16, align 4
  call void @_ZNSt10lock_guardIRKN11OpenImageIO6v3_1_010ImageInputEED2Ev(ptr noundef nonnull align 8 dereferenceable(8) %14) #3
  call void @llvm.lifetime.end.p0(i64 8, ptr %14) #3
  br label %41

28:                                               ; preds = %22
  %29 = load i32, ptr %12, align 4, !tbaa !13
  %30 = icmp ne i32 %29, 0
  br i1 %30, label %31, label %32

31:                                               ; preds = %28
  store i1 false, ptr %7, align 1
  store i32 1, ptr %17, align 4
  br label %39

32:                                               ; preds = %28
  %33 = load ptr, ptr %13, align 8, !tbaa !12
  %34 = load i32, ptr %11, align 4, !tbaa !13
  %35 = invoke noundef zeroext i1 @_ZN11OpenImageIO6v3_1_08PNMInput18read_file_scanlineEPvi(ptr noundef nonnull align 8 dereferenceable(264) %18, ptr noundef %33, i32 noundef %34)
          to label %36 unwind label %24

36:                                               ; preds = %32
  br i1 %35, label %38, label %37

37:                                               ; preds = %36
  store i1 false, ptr %7, align 1
  store i32 1, ptr %17, align 4
  br label %39

38:                                               ; preds = %36
  store i1 true, ptr %7, align 1
  store i32 1, ptr %17, align 4
  br label %39

39:                                               ; preds = %38, %37, %31, %23
  call void @_ZNSt10lock_guardIRKN11OpenImageIO6v3_1_010ImageInputEED2Ev(ptr noundef nonnull align 8 dereferenceable(8) %14) #3
  call void @llvm.lifetime.end.p0(i64 8, ptr %14) #3
  %40 = load i1, ptr %7, align 1
  ret i1 %40

41:                                               ; preds = %24
  %42 = load ptr, ptr %15, align 8
  %43 = load i32, ptr %16, align 4
  %44 = insertvalue { ptr, i32 } poison, ptr %42, 0
  %45 = insertvalue { ptr, i32 } %44, i32 %43, 1
  resume { ptr, i32 } %45
}