; Function Attrs: mustprogress uwtable
define hidden noundef zeroext i1 @_ZN11OpenImageIO6v3_1_08PNMInput20read_native_scanlineEiiiiPv(ptr noundef nonnull align 8 dereferenceable(264) %0, i32 noundef %1, i32 noundef %2, i32 noundef %3, i32 noundef %4, ptr noundef captures(none) %5) unnamed_addr #5 align 2 personality ptr @__gxx_personality_v0 {
  tail call void @_ZNK11OpenImageIO6v3_1_010ImageInput4lockEv(ptr noundef nonnull align 8 dereferenceable(184) %0)
  %7 = load ptr, ptr %0, align 8, !tbaa !3
  %8 = getelementptr inbounds nuw i8, ptr %7, i64 104
  %9 = load ptr, ptr %8, align 8
  %10 = invoke noundef i32 %9(ptr noundef nonnull align 8 dereferenceable(184) %0)
          to label %.noexc unwind label %18

.noexc:                                           ; preds = %6
  %11 = icmp eq i32 %1, %10
  br i1 %11, label %12, label %_ZN11OpenImageIO6v3_1_010ImageInput13seek_subimageEii.exit.thread

12:                                               ; preds = %.noexc
  %13 = load ptr, ptr %0, align 8, !tbaa !3
  %14 = getelementptr inbounds nuw i8, ptr %13, i64 112
  %15 = load ptr, ptr %14, align 8
  %16 = invoke noundef i32 %15(ptr noundef nonnull align 8 dereferenceable(184) %0)
          to label %_ZN11OpenImageIO6v3_1_010ImageInput13seek_subimageEii.exit unwind label %18

_ZN11OpenImageIO6v3_1_010ImageInput13seek_subimageEii.exit: ; preds = %12
  %17 = icmp eq i32 %2, %16
  %.not = icmp eq i32 %4, 0
  %or.cond = and i1 %.not, %17
  br i1 %or.cond, label %23, label %_ZN11OpenImageIO6v3_1_010ImageInput13seek_subimageEii.exit.thread

18:                                               ; preds = %12, %6, %23
  %19 = landingpad { ptr, i32 }
          cleanup
  invoke void @_ZNK11OpenImageIO6v3_1_010ImageInput6unlockEv(ptr noundef nonnull align 8 dereferenceable(184) %0)
          to label %_ZNSt10lock_guardIRKN11OpenImageIO6v3_1_010ImageInputEED2Ev.exit unwind label %20

20:                                               ; preds = %18
  %21 = landingpad { ptr, i32 }
          catch ptr null
  %22 = extractvalue { ptr, i32 } %21, 0
  tail call void @__clang_call_terminate(ptr %22) #29
  unreachable

_ZNSt10lock_guardIRKN11OpenImageIO6v3_1_010ImageInputEED2Ev.exit: ; preds = %18
  resume { ptr, i32 } %19

23:                                               ; preds = %_ZN11OpenImageIO6v3_1_010ImageInput13seek_subimageEii.exit
  %24 = invoke noundef zeroext i1 @_ZN11OpenImageIO6v3_1_08PNMInput18read_file_scanlineEPvi(ptr noundef nonnull align 8 dereferenceable(264) %0, ptr noundef %5, i32 noundef %3)
          to label %_ZN11OpenImageIO6v3_1_010ImageInput13seek_subimageEii.exit.thread unwind label %18

_ZN11OpenImageIO6v3_1_010ImageInput13seek_subimageEii.exit.thread: ; preds = %.noexc, %23, %_ZN11OpenImageIO6v3_1_010ImageInput13seek_subimageEii.exit
  %.0 = phi i1 [ false, %_ZN11OpenImageIO6v3_1_010ImageInput13seek_subimageEii.exit ], [ %24, %23 ], [ false, %.noexc ]
  invoke void @_ZNK11OpenImageIO6v3_1_010ImageInput6unlockEv(ptr noundef nonnull align 8 dereferenceable(184) %0)
          to label %_ZNSt10lock_guardIRKN11OpenImageIO6v3_1_010ImageInputEED2Ev.exit9 unwind label %25

25:                                               ; preds = %_ZN11OpenImageIO6v3_1_010ImageInput13seek_subimageEii.exit.thread
  %26 = landingpad { ptr, i32 }
          catch ptr null
  %27 = extractvalue { ptr, i32 } %26, 0
  tail call void @__clang_call_terminate(ptr %27) #29
  unreachable

_ZNSt10lock_guardIRKN11OpenImageIO6v3_1_010ImageInputEED2Ev.exit9: ; preds = %_ZN11OpenImageIO6v3_1_010ImageInput13seek_subimageEii.exit.thread
  ret i1 %.0
}